target datalayout = "e-m:e-p270:32:32-p271:32:32-p272:64:64-i64:64-i128:128-f80:128-n8:16:32:64-S128"
target triple = "x86_64-pc-linux-gnu"

@_ZN6icu_77L11asciiDigitsE = internal constant [36 x i8] c"0123456789abcdefghijklmnopqrstuvwxyz", align 16

; Function Attrs: mustprogress nounwind uwtable
define noundef i32 @_ZN6icu_7710util64_touElPDsjja(i64 noundef %0, ptr noundef %1, i32 noundef %2, i32 noundef %3, i8 noundef signext %4) #6 {
  %6 = alloca i64, align 8
  %7 = alloca ptr, align 8
  %8 = alloca i32, align 4
  %9 = alloca i32, align 4
  %10 = alloca i8, align 1
  %11 = alloca i64, align 8
  %12 = alloca ptr, align 8
  %13 = alloca i64, align 8
  %14 = alloca i64, align 8
  %15 = alloca i32, align 4
  %16 = alloca i16, align 2
  store i64 %0, ptr %6, align 8, !tbaa !52
  store ptr %1, ptr %7, align 8, !tbaa !45
  store i32 %2, ptr %8, align 4, !tbaa !12
  store i32 %3, ptr %9, align 4, !tbaa !12
  store i8 %4, ptr %10, align 1, !tbaa !35
  %17 = load i32, ptr %9, align 4, !tbaa !12
  %18 = icmp ugt i32 %17, 36
  br i1 %18, label %19, label %20

19:                                               ; preds = %5
  store i32 36, ptr %9, align 4, !tbaa !12
  br label %25

20:                                               ; preds = %5
  %21 = load i32, ptr %9, align 4, !tbaa !12
  %22 = icmp ult i32 %21, 2
  br i1 %22, label %23, label %24

23:                                               ; preds = %20
  store i32 2, ptr %9, align 4, !tbaa !12
  br label %24

24:                                               ; preds = %23, %20
  br label %25

25:                                               ; preds = %24, %19
  call void @llvm.lifetime.start.p0(i64 8, ptr %11) #12
  %26 = load i32, ptr %9, align 4, !tbaa !12
  %27 = zext i32 %26 to i64
  store i64 %27, ptr %11, align 8, !tbaa !52
  call void @llvm.lifetime.start.p0(i64 8, ptr %12) #12
  %28 = load ptr, ptr %7, align 8, !tbaa !45
  store ptr %28, ptr %12, align 8, !tbaa !45
  %29 = load i32, ptr %8, align 4, !tbaa !12
  %30 = icmp ne i32 %29, 0
  br i1 %30, label %31, label %47

31:                                               ; preds = %25
  %32 = load i64, ptr %6, align 8, !tbaa !52
  %33 = icmp slt i64 %32, 0
  br i1 %33, label %34, label %47

34:                                               ; preds = %31
  %35 = load i32, ptr %9, align 4, !tbaa !12
  %36 = icmp eq i32 %35, 10
  br i1 %36, label %37, label %47

37:                                               ; preds = %34
  %38 = load i8, ptr %10, align 1, !tbaa !35
  %39 = icmp ne i8 %38, 0
  br i1 %39, label %47, label %40

40:                                               ; preds = %37
  %41 = load i64, ptr %6, align 8, !tbaa !52
  %42 = sub nsw i64 0, %41
  store i64 %42, ptr %6, align 8, !tbaa !52
  %43 = load ptr, ptr %12, align 8, !tbaa !45
  %44 = getelementptr inbounds nuw i16, ptr %43, i32 1
  store ptr %44, ptr %12, align 8, !tbaa !45
  store i16 45, ptr %43, align 2, !tbaa !41
  %45 = load i32, ptr %8, align 4, !tbaa !12
  %46 = add i32 %45, -1
  store i32 %46, ptr %8, align 4, !tbaa !12
  br label %66

47:                                               ; preds = %37, %34, %31, %25
  %48 = load i32, ptr %8, align 4, !tbaa !12
  %49 = icmp ne i32 %48, 0
  br i1 %49, label %50, label %65

50:                                               ; preds = %47
  %51 = load i64, ptr %6, align 8, !tbaa !52
  %52 = icmp eq i64 %51, 0
  br i1 %52, label %53, label %65

53:                                               ; preds = %50
  %54 = load i8, ptr %10, align 1, !tbaa !35
  %55 = sext i8 %54 to i16
  %56 = icmp ne i16 %55, 0
  %57 = load i8, ptr @_ZN6icu_77L11asciiDigitsE, align 16, !tbaa !35
  %58 = zext i8 %57 to i32
  %59 = select i1 %56, i32 0, i32 %58
  %60 = trunc i32 %59 to i16
  %61 = load ptr, ptr %12, align 8, !tbaa !45
  %62 = getelementptr inbounds nuw i16, ptr %61, i32 1
  store ptr %62, ptr %12, align 8, !tbaa !45
  store i16 %60, ptr %61, align 2, !tbaa !41
  %63 = load i32, ptr %8, align 4, !tbaa !12
  %64 = add i32 %63, -1
  store i32 %64, ptr %8, align 4, !tbaa !12
  br label %65

65:                                               ; preds = %53, %50, %47
  br label %66

66:                                               ; preds = %65, %40
  br label %67

67:                                               ; preds = %96, %66
  %68 = load i32, ptr %8, align 4, !tbaa !12
  %69 = icmp ne i32 %68, 0
  br i1 %69, label %70, label %73

70:                                               ; preds = %67
  %71 = load i64, ptr %6, align 8, !tbaa !52
  %72 = icmp ne i64 %71, 0
  br label %73

73:                                               ; preds = %70, %67
  %74 = phi i1 [ false, %67 ], [ %72, %70 ]
  br i1 %74, label %75, label %104

75:                                               ; preds = %73
  call void @llvm.lifetime.start.p0(i64 8, ptr %13) #12
  %76 = load i64, ptr %6, align 8, !tbaa !52
  %77 = load i64, ptr %11, align 8, !tbaa !52
  %78 = sdiv i64 %76, %77
  store i64 %78, ptr %13, align 8, !tbaa !52
  call void @llvm.lifetime.start.p0(i64 8, ptr %14) #12
  %79 = load i64, ptr %13, align 8, !tbaa !52
  %80 = load i64, ptr %11, align 8, !tbaa !52
  %81 = mul nsw i64 %79, %80
  store i64 %81, ptr %14, align 8, !tbaa !52
  call void @llvm.lifetime.start.p0(i64 4, ptr %15) #12
  %82 = load i64, ptr %6, align 8, !tbaa !52
  %83 = load i64, ptr %14, align 8, !tbaa !52
  %84 = sub nsw i64 %82, %83
  %85 = trunc i64 %84 to i32
  store i32 %85, ptr %15, align 4, !tbaa !12
  %86 = load i8, ptr %10, align 1, !tbaa !35
  %87 = icmp ne i8 %86, 0
  br i1 %87, label %88, label %90

88:                                               ; preds = %75
  %89 = load i32, ptr %15, align 4, !tbaa !12
  br label %96

90:                                               ; preds = %75
  %91 = load i32, ptr %15, align 4, !tbaa !12
  %92 = sext i32 %91 to i64
  %93 = getelementptr inbounds [36 x i8], ptr @_ZN6icu_77L11asciiDigitsE, i64 0, i64 %92
  %94 = load i8, ptr %93, align 1, !tbaa !35
  %95 = zext i8 %94 to i32
  br label %96

96:                                               ; preds = %90, %88
  %97 = phi i32 [ %89, %88 ], [ %95, %90 ]
  %98 = trunc i32 %97 to i16
  %99 = load ptr, ptr %12, align 8, !tbaa !45
  %100 = getelementptr inbounds nuw i16, ptr %99, i32 1
  store ptr %100, ptr %12, align 8, !tbaa !45
  store i16 %98, ptr %99, align 2, !tbaa !41
  %101 = load i64, ptr %13, align 8, !tbaa !52
  store i64 %101, ptr %6, align 8, !tbaa !52
  %102 = load i32, ptr %8, align 4, !tbaa !12
  %103 = add i32 %102, -1
  store i32 %103, ptr %8, align 4, !tbaa !12
  call void @llvm.lifetime.end.p0(i64 4, ptr %15) #12
  call void @llvm.lifetime.end.p0(i64 8, ptr %14) #12
  call void @llvm.lifetime.end.p0(i64 8, ptr %13) #12
  br label %67, !llvm.loop !96

104:                                              ; preds = %73
  %105 = load i32, ptr %8, align 4, !tbaa !12
  %106 = icmp ne i32 %105, 0
  br i1 %106, label %107, label %109

107:                                              ; preds = %104
  %108 = load ptr, ptr %12, align 8, !tbaa !45
  store i16 0, ptr %108, align 2, !tbaa !41
  br label %109

109:                                              ; preds = %107, %104
  %110 = load ptr, ptr %12, align 8, !tbaa !45
  %111 = load ptr, ptr %7, align 8, !tbaa !45
  %112 = ptrtoint ptr %110 to i64
  %113 = ptrtoint ptr %111 to i64
  %114 = sub i64 %112, %113
  %115 = sdiv exact i64 %114, 2
  %116 = trunc i64 %115 to i32
  store i32 %116, ptr %8, align 4, !tbaa !12
  %117 = load ptr, ptr %7, align 8, !tbaa !45
  %118 = load i16, ptr %117, align 2, !tbaa !41
  %119 = zext i16 %118 to i32
  %120 = icmp eq i32 %119, 45
  br i1 %120, label %121, label %124

121:                                              ; preds = %109
  %122 = load ptr, ptr %7, align 8, !tbaa !45
  %123 = getelementptr inbounds nuw i16, ptr %122, i32 1
  store ptr %123, ptr %7, align 8, !tbaa !45
  br label %124

124:                                              ; preds = %121, %109
  br label %125

125:                                              ; preds = %130, %124
  %126 = load ptr, ptr %12, align 8, !tbaa !45
  %127 = getelementptr inbounds i16, ptr %126, i32 -1
  store ptr %127, ptr %12, align 8, !tbaa !45
  %128 = load ptr, ptr %7, align 8, !tbaa !45
  %129 = icmp ugt ptr %127, %128
  br i1 %129, label %130, label %140

130:                                              ; preds = %125
  call void @llvm.lifetime.start.p0(i64 2, ptr %16) #12
  %131 = load ptr, ptr %12, align 8, !tbaa !45
  %132 = load i16, ptr %131, align 2, !tbaa !41
  store i16 %132, ptr %16, align 2, !tbaa !41
  %133 = load ptr, ptr %7, align 8, !tbaa !45
  %134 = load i16, ptr %133, align 2, !tbaa !41
  %135 = load ptr, ptr %12, align 8, !tbaa !45
  store i16 %134, ptr %135, align 2, !tbaa !41
  %136 = load i16, ptr %16, align 2, !tbaa !41
  %137 = load ptr, ptr %7, align 8, !tbaa !45
  store i16 %136, ptr %137, align 2, !tbaa !41
  %138 = load ptr, ptr %7, align 8, !tbaa !45
  %139 = getelementptr inbounds nuw i16, ptr %138, i32 1
  store ptr %139, ptr %7, align 8, !tbaa !45
  call void @llvm.lifetime.end.p0(i64 2, ptr %16) #12
  br label %125, !llvm.loop !97

140:                                              ; preds = %125
  %141 = load i32, ptr %8, align 4, !tbaa !12
  call void @llvm.lifetime.end.p0(i64 8, ptr %12) #12
  call void @llvm.lifetime.end.p0(i64 8, ptr %11) #12
  ret i32 %141
}