; Function Attrs: mustprogress nofree norecurse nosync nounwind memory(readwrite, inaccessiblemem: none) uwtable
define noundef i32 @_ZN6icu_7710util64_touElPDsjja(i64 noundef %0, ptr noundef %1, i32 noundef %2, i32 noundef %3, i8 noundef signext %4) local_unnamed_addr #7 {
  %spec.store.select = tail call i32 @llvm.umax.i32(i32 %3, i32 2)
  %.055 = tail call i32 @llvm.umin.i32(i32 %spec.store.select, i32 36)
  %6 = zext nneg i32 %.055 to i64
  %7 = icmp ne i32 %2, 0
  %8 = icmp slt i64 %0, 0
  %9 = icmp eq i32 %3, 10
  %10 = and i1 %8, %9
  %or.cond3 = and i1 %7, %10
  %11 = icmp eq i8 %4, 0
  %or.cond5.not = and i1 %11, %or.cond3
  br i1 %or.cond5.not, label %12, label %16

12:                                               ; preds = %5
  %13 = sub nsw i64 0, %0
  %14 = getelementptr inbounds nuw i8, ptr %1, i64 2
  store i16 45, ptr %1, align 2, !tbaa !29
  %15 = add i32 %2, -1
  br label %20

16:                                               ; preds = %5
  %17 = icmp eq i64 %0, 0
  %or.cond7 = and i1 %17, %7
  br i1 %or.cond7, label %.thread, label %20

.thread:                                          ; preds = %16
  %18 = select i1 %11, i16 48, i16 0
  %19 = getelementptr inbounds nuw i8, ptr %1, i64 2
  store i16 %18, ptr %1, align 2, !tbaa !29
  %.not = icmp eq i32 %2, 1
  br i1 %.not, label %44, label %43

20:                                               ; preds = %16, %12
  %.056 = phi ptr [ %1, %16 ], [ %14, %12 ]
  %.053 = phi i32 [ %2, %16 ], [ %15, %12 ]
  %.0 = phi i64 [ %0, %16 ], [ %13, %12 ]
  %21 = icmp ne i32 %.053, 0
  %22 = icmp ne i64 %.0, 0
  %23 = select i1 %21, i1 %22, i1 false
  br i1 %23, label %.lr.ph, label %._crit_edge

.lr.ph:                                           ; preds = %20
  br i1 %11, label %.lr.ph.split.us, label %.lr.ph.split

.lr.ph.split.us:                                  ; preds = %.lr.ph, %.lr.ph.split.us
  %.164.us = phi i64 [ %24, %.lr.ph.split.us ], [ %.0, %.lr.ph ]
  %.15463.us = phi i32 [ %31, %.lr.ph.split.us ], [ %.053, %.lr.ph ]
  %.15762.us = phi ptr [ %30, %.lr.ph.split.us ], [ %.056, %.lr.ph ]
  %24 = sdiv i64 %.164.us, %6
  %25 = mul nsw i64 %24, %6
  %.recomposed = srem i64 %.164.us, %6
  %sext.us = shl i64 %.recomposed, 32
  %26 = ashr exact i64 %sext.us, 32
  %27 = getelementptr inbounds [36 x i8], ptr @_ZN6icu_77L11asciiDigitsE, i64 0, i64 %26
  %28 = load i8, ptr %27, align 1, !tbaa !6
  %29 = zext i8 %28 to i16
  %30 = getelementptr inbounds nuw i8, ptr %.15762.us, i64 2
  store i16 %29, ptr %.15762.us, align 2, !tbaa !29
  %31 = add i32 %.15463.us, -1
  %32 = icmp ne i32 %31, 0
  %33 = icmp ne i64 %24, 0
  %34 = and i1 %32, %33
  br i1 %34, label %.lr.ph.split.us, label %._crit_edge, !llvm.loop !70

.lr.ph.split:                                     ; preds = %.lr.ph, %.lr.ph.split
  %.164 = phi i64 [ %35, %.lr.ph.split ], [ %.0, %.lr.ph ]
  %.15463 = phi i32 [ %39, %.lr.ph.split ], [ %.053, %.lr.ph ]
  %.15762 = phi ptr [ %38, %.lr.ph.split ], [ %.056, %.lr.ph ]
  %35 = sdiv i64 %.164, %6
  %36 = mul nsw i64 %35, %6
  %.recomposed100 = srem i64 %.164, %6
  %37 = trunc i64 %.recomposed100 to i16
  %38 = getelementptr inbounds nuw i8, ptr %.15762, i64 2
  store i16 %37, ptr %.15762, align 2, !tbaa !29
  %39 = add i32 %.15463, -1
  %40 = icmp ne i32 %39, 0
  %41 = icmp ne i64 %35, 0
  %42 = select i1 %40, i1 %41, i1 false
  br i1 %42, label %.lr.ph.split, label %._crit_edge, !llvm.loop !70

._crit_edge:                                      ; preds = %.lr.ph.split, %.lr.ph.split.us, %20
  %.157.lcssa = phi ptr [ %.056, %20 ], [ %30, %.lr.ph.split.us ], [ %38, %.lr.ph.split ]
  %.lcssa = phi i1 [ %21, %20 ], [ %32, %.lr.ph.split.us ], [ %40, %.lr.ph.split ]
  br i1 %.lcssa, label %43, label %44

43:                                               ; preds = %.thread, %._crit_edge
  %.157.lcssa80 = phi ptr [ %19, %.thread ], [ %.157.lcssa, %._crit_edge ]
  store i16 0, ptr %.157.lcssa80, align 2, !tbaa !29
  br label %44

44:                                               ; preds = %.thread, %43, %._crit_edge
  %.157.lcssa79 = phi ptr [ %19, %.thread ], [ %.157.lcssa80, %43 ], [ %.157.lcssa, %._crit_edge ]
  %45 = load i16, ptr %1, align 2, !tbaa !29
  %46 = icmp eq i16 %45, 45
  %spec.select.idx = select i1 %46, i64 2, i64 0
  %spec.select = getelementptr inbounds nuw i8, ptr %1, i64 %spec.select.idx
  %47 = getelementptr inbounds i8, ptr %.157.lcssa79, i64 -2
  %48 = icmp ugt ptr %47, %spec.select
  br i1 %48, label %.lr.ph69, label %._crit_edge70

.lr.ph69:                                         ; preds = %44, %.lr.ph69
  %49 = phi ptr [ %53, %.lr.ph69 ], [ %47, %44 ]
  %.15267 = phi ptr [ %52, %.lr.ph69 ], [ %spec.select, %44 ]
  %50 = load i16, ptr %49, align 2, !tbaa !29
  %51 = load i16, ptr %.15267, align 2, !tbaa !29
  store i16 %51, ptr %49, align 2, !tbaa !29
  store i16 %50, ptr %.15267, align 2, !tbaa !29
  %52 = getelementptr inbounds nuw i8, ptr %.15267, i64 2
  %53 = getelementptr inbounds i8, ptr %49, i64 -2
  %54 = icmp ugt ptr %53, %52
  br i1 %54, label %.lr.ph69, label %._crit_edge70, !llvm.loop !71

._crit_edge70:                                    ; preds = %.lr.ph69, %44
  %55 = ptrtoint ptr %.157.lcssa79 to i64
  %56 = ptrtoint ptr %1 to i64
  %57 = sub i64 %55, %56
  %58 = lshr exact i64 %57, 1
  %59 = trunc i64 %58 to i32
  ret i32 %59
}